target datalayout = "e-m:e-p270:32:32-p271:32:32-p272:64:64-i64:64-i128:128-f80:128-n8:16:32:64-S128"
target triple = "x86_64-unknown-linux-gnu"

%class.symbol = type { ptr }
%"class.opt::context::scoped_state" = type { ptr, %class.arith_util, %class.bv_util, %class.svector, %class.svector, %class.svector, %class.svector, %class.svector, %class.map, %class.ref_vector, %class.ref_vector, %class.vector.1 }
%class.arith_util = type { ptr, ptr }
%class.bv_util = type { %class.bv_recognizers, ptr, ptr }
%class.bv_recognizers = type { i32 }
%class.svector = type { %class.vector }
%class.vector = type { ptr }
%class.map = type { %class.table2map }
%class.table2map = type { %class.core_hashtable }
%class.core_hashtable = type <{ ptr, i32, i32, i32, [4 x i8] }>
%class.ref_vector = type { %class.ref_vector_core }
%class.ref_vector_core = type { %class.ref_manager_wrapper, %class.ptr_vector }
%class.ref_manager_wrapper = type { ptr }
%class.ptr_vector = type { %class.vector.0 }
%class.vector.0 = type { ptr }
%class.vector.1 = type { ptr }
%class.obj_ref = type { ptr, ptr }
%"class.std::__cxx11::basic_string" = type { %"struct.std::__cxx11::basic_string<char>::_Alloc_hider", i64, %union.anon }
%"struct.std::__cxx11::basic_string<char>::_Alloc_hider" = type { ptr }
%union.anon = type { i64, [8 x i8] }
%class.params_ref = type { ptr }
%"class.opt::context" = type { %class.opt_wrapper, %"class.opt::pareto_callback", %"class.opt::maxsat_context", double, %"struct.opt::on_model_t", %"class.std::function", i8, %class.arith_util, %class.bv_util, %class.ref_vector, %class.ref.34, %class.ref.35, %class.ref.35, %class.scoped_ptr, i8, %class.scoped_ptr.36, %class.ref_vector_core.37, i32, %class.params_ref, %"class.opt::optsmt", %class.map.47, %"class.opt::context::scoped_state", %class.vector.1, %class.ref.46, %class.ref, %class.ref.51, %class.ref_vector_core.37, i32, [4 x i8], %class.obj_map.52, %class.obj_map.57, %class.ref_vector.62, %class.ref_vector, %class.ref.67, i8, i8, i8, i8, i8, i8, %class.symbol, %class.symbol, %class.svector.12, %"class.std::__cxx11::basic_string" }
%class.opt_wrapper = type { %class.check_sat_result }
%class.check_sat_result = type { ptr, ptr, %class.ref_vector, %class.obj_ref, i32, i32, %class.ref, double }
%"class.opt::pareto_callback" = type { ptr }
%"class.opt::maxsat_context" = type { ptr }
%"struct.opt::on_model_t" = type { ptr, ptr, ptr, ptr }
%"class.std::function" = type { %"class.std::_Function_base", ptr }
%"class.std::_Function_base" = type { %"union.std::_Any_data", ptr }
%"union.std::_Any_data" = type { %"union.std::_Nocopy_types" }
%"union.std::_Nocopy_types" = type { { i64, i64 } }
%class.ref.34 = type { ptr }
%class.ref.35 = type { ptr }
%class.scoped_ptr = type { ptr }
%class.scoped_ptr.36 = type { ptr }
%"class.opt::optsmt" = type { ptr, ptr, ptr, %class.vector.40, %class.vector.40, %class.ref_vector.41, %class.ref_vector, %class.svector.10, %class.symbol, %class.ref.46, %class.ref.46, %class.svector.12, %class.ref_vector_core.37 }
%class.vector.40 = type { ptr }
%class.ref_vector.41 = type { %class.ref_vector_core.42 }
%class.ref_vector_core.42 = type { %class.ref_manager_wrapper.43, %class.ptr_vector.44 }
%class.ref_manager_wrapper.43 = type { ptr }
%class.ptr_vector.44 = type { %class.vector.45 }
%class.vector.45 = type { ptr }
%class.svector.10 = type { %class.vector.11 }
%class.vector.11 = type { ptr }
%class.map.47 = type { %class.table2map.48 }
%class.table2map.48 = type { %class.core_hashtable.49 }
%class.core_hashtable.49 = type <{ ptr, i32, i32, i32, [4 x i8] }>
%class.ref.46 = type { ptr }
%class.ref = type { ptr }
%class.ref.51 = type { ptr }
%class.ref_vector_core.37 = type { %class.ptr_vector.38 }
%class.ptr_vector.38 = type { %class.vector.39 }
%class.vector.39 = type { ptr }
%class.obj_map.52 = type { %class.core_hashtable.53 }
%class.core_hashtable.53 = type <{ ptr, i32, i32, i32, [4 x i8] }>
%class.obj_map.57 = type { %class.core_hashtable.58 }
%class.core_hashtable.58 = type <{ ptr, i32, i32, i32, [4 x i8] }>
%class.ref_vector.62 = type { %class.ref_vector_core.63 }
%class.ref_vector_core.63 = type { %class.ref_manager_wrapper.64, %class.ptr_vector.65 }
%class.ref_manager_wrapper.64 = type { ptr }
%class.ptr_vector.65 = type { %class.vector.66 }
%class.vector.66 = type { ptr }
%class.ref.67 = type { ptr }
%class.svector.12 = type { %class.vector.13 }
%class.vector.13 = type { ptr }

@.str.42 = private unnamed_addr constant [15 x i8] c"optimize_model\00", align 1

; Function Attrs: mustprogress nounwind uwtable
define linkonce_odr hidden noundef ptr @_ZNK3refI6solverEptEv(ptr noundef nonnull align 8 dereferenceable(8) %this) #4 comdat align 2 {
entry:
  %this.addr = alloca ptr, align 8
  store ptr %this, ptr %this.addr, align 8
  %this1 = load ptr, ptr %this.addr, align 8
  %m_ptr = getelementptr inbounds %class.ref.35, ptr %this1, i32 0, i32 0
  %0 = load ptr, ptr %m_ptr, align 8
  ret ptr %0
}

; Function Attrs: mustprogress nounwind uwtable
define linkonce_odr hidden noundef ptr @_ZNK3refI6solverE3getEv(ptr noundef nonnull align 8 dereferenceable(8) %this) #4 comdat align 2 {
entry:
  %this.addr = alloca ptr, align 8
  store ptr %this, ptr %this.addr, align 8
  %this1 = load ptr, ptr %this.addr, align 8
  %m_ptr = getelementptr inbounds %class.ref.35, ptr %this1, i32 0, i32 0
  %0 = load ptr, ptr %m_ptr, align 8
  ret ptr %0
}

; Function Attrs: mustprogress uwtable
define hidden void @_ZN3opt7context10enable_slsEb(ptr noundef nonnull align 8 dereferenceable(792) %this, i1 noundef zeroext %force) unnamed_addr #5 align 2 {
entry:
  %this.addr = alloca ptr, align 8
  %force.addr = alloca i8, align 1
  store ptr %this, ptr %this.addr, align 8
  %frombool = zext i1 %force to i8
  store i8 %frombool, ptr %force.addr, align 1
  %this1 = load ptr, ptr %this.addr, align 8
  %0 = load i8, ptr %force.addr, align 1
  %tobool = trunc i8 %0 to i1
  br i1 %tobool, label %land.lhs.true, label %lor.lhs.false

lor.lhs.false:                                    ; preds = %entry
  %m_enable_sls = getelementptr inbounds %"class.opt::context", ptr %this1, i32 0, i32 35
  %1 = load i8, ptr %m_enable_sls, align 1
  %tobool2 = trunc i8 %1 to i1
  br i1 %tobool2, label %land.lhs.true, label %if.end

land.lhs.true:                                    ; preds = %lor.lhs.false, %entry
  %m_sat_solver = getelementptr inbounds %"class.opt::context", ptr %this1, i32 0, i32 12
  %call = call noundef ptr @_ZNK3refI6solverE3getEv(ptr noundef nonnull align 8 dereferenceable(8) %m_sat_solver)
  %tobool3 = icmp ne ptr %call, null
  br i1 %tobool3, label %if.then, label %if.end

if.then:                                          ; preds = %land.lhs.true
  %m_params = getelementptr inbounds %"class.opt::context", ptr %this1, i32 0, i32 18
  call void @_ZN10params_ref8set_boolEPKcb(ptr noundef nonnull align 8 dereferenceable(8) %m_params, ptr noundef @.str.42, i1 noundef zeroext true)
  %m_sat_solver4 = getelementptr inbounds %"class.opt::context", ptr %this1, i32 0, i32 12
  %call5 = call noundef ptr @_ZNK3refI6solverEptEv(ptr noundef nonnull align 8 dereferenceable(8) %m_sat_solver4)
  %m_params6 = getelementptr inbounds %"class.opt::context", ptr %this1, i32 0, i32 18
  %vtable = load ptr, ptr %call5, align 8
  %vfn = getelementptr inbounds ptr, ptr %vtable, i64 11
  %2 = load ptr, ptr %vfn, align 8
  call void %2(ptr noundef nonnull align 8 dereferenceable(96) %call5, ptr noundef nonnull align 8 dereferenceable(8) %m_params6)
  br label %if.end

if.end:                                           ; preds = %if.then, %land.lhs.true, %lor.lhs.false
  ret void
}

; Function Attrs: uwtable
define hidden void @_ZThn80_N3opt7context10enable_slsEb(ptr noundef %this, i1 noundef zeroext %force) unnamed_addr #0 align 2 {
entry:
  %this.addr = alloca ptr, align 8
  %force.addr = alloca i8, align 1
  store ptr %this, ptr %this.addr, align 8
  %frombool = zext i1 %force to i8
  store i8 %frombool, ptr %force.addr, align 1
  %this1 = load ptr, ptr %this.addr, align 8
  %0 = getelementptr inbounds i8, ptr %this1, i64 -80
  %1 = load i8, ptr %force.addr, align 1
  %tobool = trunc i8 %1 to i1
  tail call void @_ZN3opt7context10enable_slsEb(ptr noundef nonnull align 8 dereferenceable(792) %0, i1 noundef zeroext %tobool)
  ret void
}