; Function Attrs: uwtable
define hidden void @_ZThn80_N3opt7context10enable_slsEb(ptr noundef %this, i1 noundef zeroext %force) unnamed_addr #13 align 2 {
entry:
  br i1 %force, label %land.lhs.true.i, label %lor.lhs.false.i

lor.lhs.false.i:                                  ; preds = %entry
  %m_enable_sls.i = getelementptr inbounds i8, ptr %this, i64 649
  %0 = load i8, ptr %m_enable_sls.i, align 1
  %1 = and i8 %0, 1
  %tobool2.not.i = icmp eq i8 %1, 0
  br i1 %tobool2.not.i, label %_ZN3opt7context10enable_slsEb.exit, label %land.lhs.true.i

land.lhs.true.i:                                  ; preds = %lor.lhs.false.i, %entry
  %m_sat_solver.i = getelementptr inbounds i8, ptr %this, i64 160
  %2 = load ptr, ptr %m_sat_solver.i, align 8
  %tobool3.not.i = icmp eq ptr %2, null
  br i1 %tobool3.not.i, label %_ZN3opt7context10enable_slsEb.exit, label %if.then.i

if.then.i:                                        ; preds = %land.lhs.true.i
  %m_params.i = getelementptr inbounds i8, ptr %this, i64 208
  tail call void @_ZN10params_ref8set_boolEPKcb(ptr noundef nonnull align 8 dereferenceable(8) %m_params.i, ptr noundef nonnull @.str.42, i1 noundef zeroext true)
  %3 = load ptr, ptr %m_sat_solver.i, align 8
  %vtable.i = load ptr, ptr %3, align 8
  %vfn.i = getelementptr inbounds i8, ptr %vtable.i, i64 88
  %4 = load ptr, ptr %vfn.i, align 8
  tail call void %4(ptr noundef nonnull align 8 dereferenceable(96) %3, ptr noundef nonnull align 8 dereferenceable(8) %m_params.i)
  br label %_ZN3opt7context10enable_slsEb.exit

_ZN3opt7context10enable_slsEb.exit:               ; preds = %lor.lhs.false.i, %land.lhs.true.i, %if.then.i
  ret void
}